target datalayout = "e-m:e-p270:32:32-p271:32:32-p272:64:64-i64:64-i128:128-f80:128-n8:16:32:64-S128"
target triple = "x86_64-pc-linux-gnu"

%struct.H5T_t = type { %struct.H5O_shared_t, ptr, %struct.H5O_loc_t, %struct.H5G_name_t, ptr }
%struct.H5O_shared_t = type { i32, ptr, i32, %union.anon }
%union.anon = type { %struct.H5O_mesg_loc_t }
%struct.H5O_mesg_loc_t = type { i32, i64 }
%struct.H5O_loc_t = type { ptr, i64, i8 }
%struct.H5G_name_t = type { ptr, ptr, i32 }
%struct.H5T_shared_t = type { i64, i32, i32, i64, i32, i8, ptr, ptr, %union.anon.0 }
%union.anon.0 = type { %struct.H5T_array_t }
%struct.H5T_array_t = type { i64, i32, [32 x i64] }

@.str.2 = private unnamed_addr constant [97 x i8] c"generated/home/dtcxzyw/WorkSpace/Projects/compilers/llvm-opt-benchmark/bench/hdf5/hdf5/src/H5T.c\00", align 1
@H5E_DATATYPE_g = external global i64, align 8
@H5E_CANTINIT_g = external global i64, align 8
@H5E_ARGS_g = external global i64, align 8
@H5E_BADVALUE_g = external global i64, align 8
@__func__.H5T_get_super = private unnamed_addr constant [14 x i8] c"H5T_get_super\00", align 1
@.str.257 = private unnamed_addr constant [24 x i8] c"not a derived data type\00", align 1
@.str.258 = private unnamed_addr constant [32 x i8] c"unable to copy parent data type\00", align 1

; Function Attrs: nounwind uwtable
define ptr @H5T_get_super(ptr noundef %0) #0 {
  %2 = alloca ptr, align 8
  %3 = alloca ptr, align 8
  %4 = alloca i8, align 1
  store ptr %0, ptr %2, align 8
  store ptr null, ptr %3, align 8
  store i8 0, ptr %4, align 1
  %5 = load ptr, ptr %2, align 8
  %6 = getelementptr inbounds %struct.H5T_t, ptr %5, i32 0, i32 1
  %7 = load ptr, ptr %6, align 8
  %8 = getelementptr inbounds %struct.H5T_shared_t, ptr %7, i32 0, i32 6
  %9 = load ptr, ptr %8, align 8
  %10 = icmp ne ptr %9, null
  br i1 %10, label %26, label %11

11:                                               ; preds = %1
  br label %12

12:                                               ; preds = %11
  br label %13

13:                                               ; preds = %12
  br label %14

14:                                               ; preds = %13
  %15 = load i64, ptr @H5E_ARGS_g, align 8
  %16 = load i64, ptr @H5E_BADVALUE_g, align 8
  %17 = call i32 (ptr, ptr, i32, i64, i64, ptr, ...) @H5E_printf_stack(ptr noundef @.str.2, ptr noundef @__func__.H5T_get_super, i32 noundef 2560, i64 noundef %15, i64 noundef %16, ptr noundef @.str.257)
  br label %18

18:                                               ; preds = %14
  store i8 1, ptr %4, align 1
  %19 = load i8, ptr %4, align 1
  %20 = trunc i8 %19 to i1
  %21 = zext i1 %20 to i8
  store i8 %21, ptr %4, align 1
  br label %22

22:                                               ; preds = %18
  br label %23

23:                                               ; preds = %22
  store ptr null, ptr %3, align 8
  br label %50

24:                                               ; No predecessors!
  br label %25

25:                                               ; preds = %24
  br label %26

26:                                               ; preds = %25, %1
  %27 = load ptr, ptr %2, align 8
  %28 = getelementptr inbounds %struct.H5T_t, ptr %27, i32 0, i32 1
  %29 = load ptr, ptr %28, align 8
  %30 = getelementptr inbounds %struct.H5T_shared_t, ptr %29, i32 0, i32 6
  %31 = load ptr, ptr %30, align 8
  %32 = call ptr @H5T_copy(ptr noundef %31, i32 noundef 1)
  store ptr %32, ptr %3, align 8
  %33 = icmp eq ptr null, %32
  br i1 %33, label %34, label %49

34:                                               ; preds = %26
  br label %35

35:                                               ; preds = %34
  br label %36

36:                                               ; preds = %35
  br label %37

37:                                               ; preds = %36
  %38 = load i64, ptr @H5E_DATATYPE_g, align 8
  %39 = load i64, ptr @H5E_CANTINIT_g, align 8
  %40 = call i32 (ptr, ptr, i32, i64, i64, ptr, ...) @H5E_printf_stack(ptr noundef @.str.2, ptr noundef @__func__.H5T_get_super, i32 noundef 2562, i64 noundef %38, i64 noundef %39, ptr noundef @.str.258)
  br label %41

41:                                               ; preds = %37
  store i8 1, ptr %4, align 1
  %42 = load i8, ptr %4, align 1
  %43 = trunc i8 %42 to i1
  %44 = zext i1 %43 to i8
  store i8 %44, ptr %4, align 1
  br label %45

45:                                               ; preds = %41
  br label %46

46:                                               ; preds = %45
  store ptr null, ptr %3, align 8
  br label %50

47:                                               ; No predecessors!
  br label %48

48:                                               ; preds = %47
  br label %49

49:                                               ; preds = %48, %26
  br label %50

50:                                               ; preds = %49, %46, %23
  %51 = load ptr, ptr %3, align 8
  ret ptr %51
}