; Function Attrs: nounwind uwtable
define ptr @H5T_get_super(ptr nocapture noundef readonly %0) local_unnamed_addr #0 {
  %2 = getelementptr inbounds i8, ptr %0, i64 40
  %3 = load ptr, ptr %2, align 8
  %4 = getelementptr inbounds i8, ptr %3, i64 32
  %5 = load ptr, ptr %4, align 8
  %.not = icmp eq ptr %5, null
  br i1 %.not, label %6, label %10

6:                                                ; preds = %1
  %7 = load i64, ptr @H5E_ARGS_g, align 8
  %8 = load i64, ptr @H5E_BADVALUE_g, align 8
  %9 = tail call i32 (ptr, ptr, i32, i64, i64, ptr, ...) @H5E_printf_stack(ptr noundef nonnull @.str.2, ptr noundef nonnull @__func__.H5T_get_super, i32 noundef 2560, i64 noundef %7, i64 noundef %8, ptr noundef nonnull @.str.257) #17
  br label %17

10:                                               ; preds = %1
  %11 = tail call ptr @H5T_copy(ptr noundef nonnull %5, i32 noundef 1)
  %12 = icmp eq ptr %11, null
  br i1 %12, label %13, label %17

13:                                               ; preds = %10
  %14 = load i64, ptr @H5E_DATATYPE_g, align 8
  %15 = load i64, ptr @H5E_CANTINIT_g, align 8
  %16 = tail call i32 (ptr, ptr, i32, i64, i64, ptr, ...) @H5E_printf_stack(ptr noundef nonnull @.str.2, ptr noundef nonnull @__func__.H5T_get_super, i32 noundef 2562, i64 noundef %14, i64 noundef %15, ptr noundef nonnull @.str.258) #17
  br label %17

17:                                               ; preds = %10, %13, %6
  %.0 = phi ptr [ null, %13 ], [ %11, %10 ], [ null, %6 ]
  ret ptr %.0
}